target datalayout = "e-m:e-p270:32:32-p271:32:32-p272:64:64-i64:64-i128:128-f80:128-n8:16:32:64-S128"
target triple = "x86_64-pc-linux-gnu"

%struct.cli_matcher = type { i32, ptr, ptr, ptr, ptr, i32, i32, i32, i32, i32, %struct.cli_hash_patt, %struct.cli_hash_wild, i32, i32, i32, i32, i32, ptr, ptr, ptr, ptr, ptr, ptr, i32, i32, i8, i8, ptr, i16, i8, i32, ptr, i32, i32, i32, ptr, ptr, i32, ptr, i64, i64, ptr }
%struct.cli_hash_patt = type { [3 x %struct.cli_htu32] }
%struct.cli_htu32 = type { ptr, i64, i64, i64 }
%struct.cli_hash_wild = type { [3 x %struct.cli_sz_hash] }
%struct.cli_sz_hash = type { ptr, ptr, i32 }
%struct.cli_ac_lsig = type { i32, i32, i32, i8, %union.anon.0, ptr, %struct.cli_lsig_tdb }
%union.anon.0 = type { ptr }
%struct.cli_lsig_tdb = type { ptr, ptr, ptr, [3 x i32], i32, ptr, ptr, ptr, ptr, ptr, ptr, ptr, ptr, ptr, ptr, ptr, ptr }

; Function Attrs: nounwind uwtable
define i32 @cli_ac_chkmacro(ptr noundef %0, ptr noundef %1, i32 noundef %2) #0 {
  %4 = alloca i32, align 4
  %5 = alloca ptr, align 8
  %6 = alloca ptr, align 8
  %7 = alloca i32, align 4
  %8 = alloca ptr, align 8
  %9 = alloca i32, align 4
  %10 = alloca i32, align 4
  %11 = alloca i32, align 4
  store ptr %0, ptr %5, align 8, !tbaa !3
  store ptr %1, ptr %6, align 8, !tbaa !88
  store i32 %2, ptr %7, align 4, !tbaa !49
  call void @llvm.lifetime.start.p0(i64 8, ptr %8) #16
  %12 = load ptr, ptr %5, align 8, !tbaa !3
  %13 = getelementptr inbounds nuw %struct.cli_matcher, ptr %12, i32 0, i32 17
  %14 = load ptr, ptr %13, align 8, !tbaa !125
  %15 = load i32, ptr %7, align 4, !tbaa !49
  %16 = zext i32 %15 to i64
  %17 = getelementptr inbounds nuw ptr, ptr %14, i64 %16
  %18 = load ptr, ptr %17, align 8, !tbaa !126
  %19 = getelementptr inbounds nuw %struct.cli_ac_lsig, ptr %18, i32 0, i32 6
  store ptr %19, ptr %8, align 8, !tbaa !128
  call void @llvm.lifetime.start.p0(i64 4, ptr %9) #16
  call void @llvm.lifetime.start.p0(i64 4, ptr %10) #16
  store i32 0, ptr %9, align 4, !tbaa !49
  br label %20

20:                                               ; preds = %37, %3
  %21 = load i32, ptr %9, align 4, !tbaa !49
  %22 = load ptr, ptr %8, align 8, !tbaa !128
  %23 = getelementptr inbounds nuw %struct.cli_lsig_tdb, ptr %22, i32 0, i32 4
  %24 = load i32, ptr %23, align 4, !tbaa !139
  %25 = icmp ult i32 %21, %24
  br i1 %25, label %26, label %40

26:                                               ; preds = %20
  %27 = load ptr, ptr %5, align 8, !tbaa !3
  %28 = load ptr, ptr %6, align 8, !tbaa !88
  %29 = load i32, ptr %7, align 4, !tbaa !49
  %30 = load i32, ptr %9, align 4, !tbaa !49
  %31 = call i32 @lsig_sub_matched(ptr noundef %27, ptr noundef %28, i32 noundef %29, i32 noundef %30, i32 noundef -2, i32 noundef 0)
  store i32 %31, ptr %10, align 4, !tbaa !49
  %32 = load i32, ptr %10, align 4, !tbaa !49
  %33 = icmp ne i32 %32, 0
  br i1 %33, label %34, label %36

34:                                               ; preds = %26
  %35 = load i32, ptr %10, align 4, !tbaa !49
  store i32 %35, ptr %4, align 4
  store i32 1, ptr %11, align 4
  br label %41

36:                                               ; preds = %26
  br label %37

37:                                               ; preds = %36
  %38 = load i32, ptr %9, align 4, !tbaa !49
  %39 = add i32 %38, 1
  store i32 %39, ptr %9, align 4, !tbaa !49
  br label %20

40:                                               ; preds = %20
  store i32 0, ptr %4, align 4
  store i32 1, ptr %11, align 4
  br label %41

41:                                               ; preds = %40, %34
  call void @llvm.lifetime.end.p0(i64 4, ptr %10) #16
  call void @llvm.lifetime.end.p0(i64 4, ptr %9) #16
  call void @llvm.lifetime.end.p0(i64 8, ptr %8) #16
  %42 = load i32, ptr %4, align 4
  ret i32 %42
}