; Function Attrs: nounwind uwtable
define range(i32 0, 21) i32 @cli_ac_chkmacro(ptr noundef readonly captures(none) %0, ptr noundef readonly captures(none) %1, i32 noundef %2) local_unnamed_addr #0 {
  %4 = getelementptr inbounds nuw i8, ptr %0, i64 256
  %5 = load ptr, ptr %4, align 8, !tbaa !119
  %6 = zext i32 %2 to i64
  %7 = getelementptr inbounds nuw ptr, ptr %5, i64 %6
  %8 = load ptr, ptr %7, align 8, !tbaa !120
  %9 = getelementptr inbounds nuw i8, ptr %8, i64 68
  %10 = load i32, ptr %9, align 4, !tbaa !131
  %.not16 = icmp eq i32 %10, 0
  br i1 %.not16, label %._crit_edge, label %.lr.ph

11:                                               ; preds = %.lr.ph
  %12 = add nuw i32 %.01113, 1
  %13 = load i32, ptr %9, align 4, !tbaa !131
  %14 = icmp ult i32 %12, %13
  br i1 %14, label %.lr.ph, label %._crit_edge

.lr.ph:                                           ; preds = %3, %11
  %.01113 = phi i32 [ %12, %11 ], [ 0, %3 ]
  %15 = tail call i32 @lsig_sub_matched(ptr noundef %0, ptr noundef %1, i32 noundef %2, i32 noundef %.01113, i32 noundef -2, i32 noundef 0)
  %.not = icmp eq i32 %15, 0
  br i1 %.not, label %11, label %._crit_edge

._crit_edge:                                      ; preds = %.lr.ph, %11, %3
  %.0 = phi i32 [ 0, %3 ], [ 0, %11 ], [ %15, %.lr.ph ]
  ret i32 %.0
}